target datalayout = "e-m:e-p270:32:32-p271:32:32-p272:64:64-i64:64-i128:128-f80:128-n8:16:32:64-S128"
target triple = "x86_64-unknown-linux-gnu"

%struct.ERSTDeviceState = type { %struct.PCIDevice, ptr, ptr, i32, i32, %struct.MemoryRegion, %struct.MemoryRegion, i8, i8, i8, i32, i64, i64, i64, ptr, i32, i32, i32 }
%struct.PCIDevice = type { %struct.DeviceState, i8, i8, ptr, ptr, ptr, ptr, ptr, i32, %struct.PCIReqIDCache, [64 x i8], [7 x %struct.PCIIORegion], %struct.AddressSpace, %struct.MemoryRegion, %struct.MemoryRegion, ptr, ptr, [3 x ptr], i8, i8, i32, i8, i32, ptr, ptr, ptr, ptr, ptr, ptr, %struct.MemoryRegion, %struct.MemoryRegion, %struct.MemoryRegion, ptr, i8, i32, i8, %struct.PCIExpressDevice, ptr, ptr, i32, i8, %struct.MemoryRegion, i32, ptr, ptr, ptr, ptr, ptr, i32 }
%struct.DeviceState = type { %struct.Object, ptr, ptr, i8, i8, i64, ptr, i32, i8, ptr, %struct.NamedGPIOListHead, %struct.NamedClockListHead, %struct.BusStateHead, i32, i32, i32, %struct.ResettableState, ptr, %struct.MemReentrancyGuard }
%struct.Object = type { ptr, ptr, ptr, i32, ptr }
%struct.NamedGPIOListHead = type { ptr }
%struct.NamedClockListHead = type { ptr }
%struct.BusStateHead = type { ptr }
%struct.ResettableState = type { i32, i8, i8 }
%struct.MemReentrancyGuard = type { i8 }
%struct.PCIReqIDCache = type { ptr, i32 }
%struct.PCIIORegion = type { i64, i64, i8, ptr, ptr }
%struct.AddressSpace = type { %struct.rcu_head, ptr, ptr, ptr, i32, i32, ptr, %union.anon.0, %union.anon.1 }
%struct.rcu_head = type { ptr, ptr }
%union.anon.0 = type { %struct.QTailQLink }
%struct.QTailQLink = type { ptr, ptr }
%union.anon.1 = type { %struct.QTailQLink }
%struct.PCIExpressDevice = type { i8, i8, i8, i16, %struct.PCIEAERLog, i16, i16, i16, %struct.PCIESriovPF, %struct.PCIESriovVF }
%struct.PCIEAERLog = type { i16, i16, ptr }
%struct.PCIESriovPF = type { i16, [7 x i8], ptr, ptr }
%struct.PCIESriovVF = type { ptr, i16 }
%struct.MemoryRegion = type { %struct.Object, i8, i8, i8, i8, i8, i8, i8, i8, i8, i8, ptr, ptr, ptr, ptr, ptr, ptr, i32, i128, i64, ptr, i64, i8, i8, i8, i8, i8, ptr, i64, i32, %union.anon.2, %union.anon.3, %union.anon.4, ptr, i32, ptr, ptr, i8 }
%union.anon.2 = type { %struct.QTailQLink }
%union.anon.3 = type { %struct.QTailQLink }
%union.anon.4 = type { %struct.QTailQLink }
%struct.ERSTStorageHeader = type { i64, i32, i32, i16, i16, i32, [0 x i64] }

@.str.1 = private unnamed_addr constant [23 x i8] c"../qemu/hw/acpi/erst.c\00", align 1
@__func__.get_nvram_ptr_by_index = private unnamed_addr constant [23 x i8] c"get_nvram_ptr_by_index\00", align 1
@.str.28 = private unnamed_addr constant [25 x i8] c"offset < s->storage_size\00", align 1

; Function Attrs: nounwind sspstrong uwtable
define internal i32 @le32_to_cpu(i32 noundef %v) #0 {
entry:
  %v.addr = alloca i32, align 4
  store i32 %v, ptr %v.addr, align 4
  %0 = load i32, ptr %v.addr, align 4
  ret i32 %0
}

; Function Attrs: nounwind sspstrong uwtable
define internal ptr @get_nvram_ptr_by_index(ptr noundef %s, i32 noundef %index) #0 {
entry:
  %s.addr = alloca ptr, align 8
  %index.addr = alloca i32, align 4
  %rc = alloca ptr, align 8
  %offset = alloca i64, align 8
  store ptr %s, ptr %s.addr, align 8
  store i32 %index, ptr %index.addr, align 4
  store ptr null, ptr %rc, align 8
  %0 = load i32, ptr %index.addr, align 4
  %1 = load ptr, ptr %s.addr, align 8
  %header = getelementptr inbounds %struct.ERSTDeviceState, ptr %1, i32 0, i32 14
  %2 = load ptr, ptr %header, align 16
  %record_size = getelementptr inbounds %struct.ERSTStorageHeader, ptr %2, i32 0, i32 1
  %3 = load i32, ptr %record_size, align 1
  %call = call i32 @le32_to_cpu(i32 noundef %3)
  %mul = mul i32 %0, %call
  %conv = zext i32 %mul to i64
  store i64 %conv, ptr %offset, align 8
  br label %do.body

do.body:                                          ; preds = %entry
  %4 = load i64, ptr %offset, align 8
  %5 = load ptr, ptr %s.addr, align 8
  %storage_size = getelementptr inbounds %struct.ERSTDeviceState, ptr %5, i32 0, i32 3
  %6 = load i32, ptr %storage_size, align 16
  %conv1 = zext i32 %6 to i64
  %cmp = icmp slt i64 %4, %conv1
  br i1 %cmp, label %if.then, label %if.else

if.then:                                          ; preds = %do.body
  br label %if.end

if.else:                                          ; preds = %do.body
  call void @g_assertion_message_expr(ptr noundef null, ptr noundef @.str.1, i32 noundef 382, ptr noundef @__func__.get_nvram_ptr_by_index, ptr noundef @.str.28) #7
  unreachable

if.end:                                           ; preds = %if.then
  br label %do.end

do.end:                                           ; preds = %if.end
  %7 = load ptr, ptr %s.addr, align 8
  %hostmem_mr = getelementptr inbounds %struct.ERSTDeviceState, ptr %7, i32 0, i32 2
  %8 = load ptr, ptr %hostmem_mr, align 8
  %call3 = call ptr @memory_region_get_ram_ptr(ptr noundef %8)
  store ptr %call3, ptr %rc, align 8
  %9 = load i64, ptr %offset, align 8
  %10 = load ptr, ptr %rc, align 8
  %add.ptr = getelementptr i8, ptr %10, i64 %9
  store ptr %add.ptr, ptr %rc, align 8
  %11 = load ptr, ptr %rc, align 8
  ret ptr %11
}