; Function Attrs: nounwind sspstrong uwtable
define internal fastcc ptr @get_nvram_ptr_by_index(ptr noundef readonly captures(none) %s, i32 noundef %index) unnamed_addr #0 {
entry:
  %header = getelementptr inbounds nuw i8, ptr %s, i64 3216
  %0 = load ptr, ptr %header, align 16
  %record_size = getelementptr inbounds nuw i8, ptr %0, i64 8
  %1 = load i32, ptr %record_size, align 1
  %mul = mul i32 %1, %index
  %storage_size = getelementptr inbounds nuw i8, ptr %s, i64 2624
  %2 = load i32, ptr %storage_size, align 16
  %cmp = icmp ult i32 %mul, %2
  br i1 %cmp, label %do.end, label %if.else

if.else:                                          ; preds = %entry
  tail call void @g_assertion_message_expr(ptr noundef null, ptr noundef nonnull @.str.1, i32 noundef 382, ptr noundef nonnull @__func__.get_nvram_ptr_by_index, ptr noundef nonnull @.str.28) #11
  unreachable

do.end:                                           ; preds = %entry
  %conv = zext i32 %mul to i64
  %hostmem_mr = getelementptr inbounds nuw i8, ptr %s, i64 2616
  %3 = load ptr, ptr %hostmem_mr, align 8
  %call3 = tail call ptr @memory_region_get_ram_ptr(ptr noundef %3) #10
  %add.ptr = getelementptr i8, ptr %call3, i64 %conv
  ret ptr %add.ptr
}